target datalayout = "e-m:e-p270:32:32-p271:32:32-p272:64:64-i64:64-i128:128-f80:128-n8:16:32:64-S128"
target triple = "x86_64-pc-linux-gnu"

; Function Attrs: nounwind uwtable
define i64 @calc_acc_pos(i32 noundef %0, i64 noundef %1, ptr noundef %2, ptr noundef %3) #0 {
  %5 = alloca i32, align 4
  %6 = alloca i64, align 8
  %7 = alloca ptr, align 8
  %8 = alloca ptr, align 8
  %9 = alloca i32, align 4
  %10 = alloca i64, align 8
  store i32 %0, ptr %5, align 4, !tbaa !3
  store i64 %1, ptr %6, align 8, !tbaa !7
  store ptr %2, ptr %7, align 8, !tbaa !59
  store ptr %3, ptr %8, align 8, !tbaa !59
  call void @llvm.lifetime.start.p0(i64 4, ptr %9) #10
  call void @llvm.lifetime.start.p0(i64 8, ptr %10) #10
  %11 = load i64, ptr %6, align 8, !tbaa !7
  store i64 %11, ptr %10, align 8, !tbaa !7
  br label %12

12:                                               ; preds = %4
  br label %13

13:                                               ; preds = %12
  br label %14

14:                                               ; preds = %13
  %15 = load i32, ptr %5, align 4, !tbaa !3
  %16 = icmp ugt i32 %15, 0
  br i1 %16, label %17, label %66

17:                                               ; preds = %14
  store i32 0, ptr %9, align 4, !tbaa !3
  br label %18

18:                                               ; preds = %62, %17
  %19 = load i32, ptr %9, align 4, !tbaa !3
  %20 = load i32, ptr %5, align 4, !tbaa !3
  %21 = icmp slt i32 %19, %20
  br i1 %21, label %22, label %65

22:                                               ; preds = %18
  %23 = load i64, ptr %10, align 8, !tbaa !7
  %24 = icmp ugt i64 %23, 0
  br i1 %24, label %25, label %53

25:                                               ; preds = %22
  br label %26

26:                                               ; preds = %25
  br label %27

27:                                               ; preds = %26
  br label %28

28:                                               ; preds = %27
  %29 = load i64, ptr %10, align 8, !tbaa !7
  %30 = load ptr, ptr %7, align 8, !tbaa !59
  %31 = load i32, ptr %9, align 4, !tbaa !3
  %32 = sext i32 %31 to i64
  %33 = getelementptr inbounds i64, ptr %30, i64 %32
  %34 = load i64, ptr %33, align 8, !tbaa !7
  %35 = udiv i64 %29, %34
  %36 = load ptr, ptr %8, align 8, !tbaa !59
  %37 = load i32, ptr %9, align 4, !tbaa !3
  %38 = sext i32 %37 to i64
  %39 = getelementptr inbounds i64, ptr %36, i64 %38
  store i64 %35, ptr %39, align 8, !tbaa !7
  %40 = load ptr, ptr %7, align 8, !tbaa !59
  %41 = load i32, ptr %9, align 4, !tbaa !3
  %42 = sext i32 %41 to i64
  %43 = getelementptr inbounds i64, ptr %40, i64 %42
  %44 = load i64, ptr %43, align 8, !tbaa !7
  %45 = load ptr, ptr %8, align 8, !tbaa !59
  %46 = load i32, ptr %9, align 4, !tbaa !3
  %47 = sext i32 %46 to i64
  %48 = getelementptr inbounds i64, ptr %45, i64 %47
  %49 = load i64, ptr %48, align 8, !tbaa !7
  %50 = mul i64 %44, %49
  %51 = load i64, ptr %10, align 8, !tbaa !7
  %52 = sub i64 %51, %50
  store i64 %52, ptr %10, align 8, !tbaa !7
  br label %58

53:                                               ; preds = %22
  %54 = load ptr, ptr %8, align 8, !tbaa !59
  %55 = load i32, ptr %9, align 4, !tbaa !3
  %56 = sext i32 %55 to i64
  %57 = getelementptr inbounds i64, ptr %54, i64 %56
  store i64 0, ptr %57, align 8, !tbaa !7
  br label %58

58:                                               ; preds = %53, %28
  br label %59

59:                                               ; preds = %58
  br label %60

60:                                               ; preds = %59
  br label %61

61:                                               ; preds = %60
  br label %62

62:                                               ; preds = %61
  %63 = load i32, ptr %9, align 4, !tbaa !3
  %64 = add nsw i32 %63, 1
  store i32 %64, ptr %9, align 4, !tbaa !3
  br label %18, !llvm.loop !80

65:                                               ; preds = %18
  br label %66

66:                                               ; preds = %65, %14
  br label %67

67:                                               ; preds = %66
  br label %68

68:                                               ; preds = %67
  br label %69

69:                                               ; preds = %68
  %70 = load i64, ptr %10, align 8, !tbaa !7
  call void @llvm.lifetime.end.p0(i64 8, ptr %10) #10
  call void @llvm.lifetime.end.p0(i64 4, ptr %9) #10
  ret i64 %70
}