; Function Attrs: nofree norecurse nosync nounwind memory(argmem: readwrite) uwtable
define i64 @calc_acc_pos(i32 noundef %0, i64 noundef %1, ptr noundef readonly captures(none) %2, ptr noundef writeonly captures(none) %3) local_unnamed_addr #9 {
  %5 = icmp sgt i32 %0, 0
  br i1 %5, label %.lr.ph.preheader, label %.loopexit

.lr.ph.preheader:                                 ; preds = %4
  %wide.trip.count = zext nneg i32 %0 to i64
  br label %.lr.ph

.lr.ph:                                           ; preds = %.lr.ph.preheader, %16
  %indvars.iv = phi i64 [ 0, %.lr.ph.preheader ], [ %indvars.iv.next, %16 ]
  %.022 = phi i64 [ %1, %.lr.ph.preheader ], [ %.1, %16 ]
  %.not20 = icmp eq i64 %.022, 0
  br i1 %.not20, label %14, label %6

6:                                                ; preds = %.lr.ph
  %7 = getelementptr inbounds nuw i64, ptr %2, i64 %indvars.iv
  %8 = load i64, ptr %7, align 8, !tbaa !7
  %9 = udiv i64 %.022, %8
  %10 = getelementptr inbounds nuw i64, ptr %3, i64 %indvars.iv
  store i64 %9, ptr %10, align 8, !tbaa !7
  %11 = load i64, ptr %7, align 8, !tbaa !7
  %12 = mul i64 %11, %9
  %13 = sub i64 %.022, %12
  br label %16

14:                                               ; preds = %.lr.ph
  %15 = getelementptr inbounds nuw i64, ptr %3, i64 %indvars.iv
  store i64 0, ptr %15, align 8, !tbaa !7
  br label %16

16:                                               ; preds = %14, %6
  %.1 = phi i64 [ %13, %6 ], [ 0, %14 ]
  %indvars.iv.next = add nuw nsw i64 %indvars.iv, 1
  %exitcond.not = icmp eq i64 %indvars.iv.next, %wide.trip.count
  br i1 %exitcond.not, label %.loopexit, label %.lr.ph, !llvm.loop !64

.loopexit:                                        ; preds = %16, %4
  %.2 = phi i64 [ %1, %4 ], [ %.1, %16 ]
  ret i64 %.2
}